; ModuleID = '60/1852.c'
source_filename = "60/1852.c"
target datalayout = "e-m:e-p270:32:32-p271:32:32-p272:64:64-i64:64-f80:128-n8:16:32:64-S128"
target triple = "x86_64-pc-linux-gnu"

@.str = private unnamed_addr constant [3 x i8] c"%d\00", align 1
@.str.1 = private unnamed_addr constant [7 x i8] c"%d %d\0A\00", align 1
@.str.2 = private unnamed_addr constant [7 x i8] c"empty\0A\00", align 1

; Function Attrs: noinline nounwind uwtable
define dso_local i32 @main() #0 {
  %1 = alloca i32, align 4
  %2 = alloca i32, align 4
  %3 = alloca i32, align 4
  %4 = alloca i32, align 4
  %5 = alloca i32, align 4
  %6 = alloca i32, align 4
  %7 = alloca i32, align 4
  %8 = alloca i32, align 4
  %9 = alloca i32, align 4
  store i32 0, i32* %1, align 4
  store i32 0, i32* %6, align 4
  store i32 0, i32* %7, align 4
  store i32 0, i32* %8, align 4
  store i32 0, i32* %9, align 4
  %10 = call i32 (i8*, ...) @__isoc99_scanf(i8* getelementptr inbounds ([3 x i8], [3 x i8]* @.str, i64 0, i64 0), i32* %4)
  store i32 3, i32* %2, align 4
  br label %11

11:                                               ; preds = %54, %0
  %12 = load i32, i32* %2, align 4
  %13 = load i32, i32* %4, align 4
  %14 = icmp sle i32 %12, %13
  br i1 %14, label %15, label %57

15:                                               ; preds = %11
  store i32 2, i32* %3, align 4
  br label %16

16:                                               ; preds = %32, %15
  %17 = load i32, i32* %3, align 4
  %18 = sitofp i32 %17 to double
  %19 = load i32, i32* %2, align 4
  %20 = sitofp i32 %19 to double
  %21 = call double @sqrt(double %20) #3
  %22 = fcmp ole double %18, %21
  br i1 %22, label %23, label %35

23:                                               ; preds = %16
  %24 = load i32, i32* %2, align 4
  %25 = load i32, i32* %3, align 4
  %26 = srem i32 %24, %25
  %27 = icmp eq i32 %26, 0
  br i1 %27, label %28, label %31

28:                                               ; preds = %23
  %29 = load i32, i32* %6, align 4
  %30 = add nsw i32 %29, 1
  store i32 %30, i32* %6, align 4
  br label %31

31:                                               ; preds = %28, %23
  br label %32

32:                                               ; preds = %31
  %33 = load i32, i32* %3, align 4
  %34 = add nsw i32 %33, 1
  store i32 %34, i32* %3, align 4
  br label %16

35:                                               ; preds = %16
  %36 = load i32, i32* %6, align 4
  %37 = icmp eq i32 %36, 0
  br i1 %37, label %38, label %53

38:                                               ; preds = %35
  %39 = load i32, i32* %7, align 4
  store i32 %39, i32* %5, align 4
  %40 = load i32, i32* %2, align 4
  store i32 %40, i32* %7, align 4
  %41 = load i32, i32* %5, align 4
  store i32 %41, i32* %8, align 4
  %42 = load i32, i32* %7, align 4
  %43 = load i32, i32* %8, align 4
  %44 = sub nsw i32 %42, %43
  %45 = icmp eq i32 %44, 2
  br i1 %45, label %46, label %52

46:                                               ; preds = %38
  %47 = load i32, i32* %8, align 4
  %48 = load i32, i32* %7, align 4
  %49 = call i32 (i8*, ...) @printf(i8* getelementptr inbounds ([7 x i8], [7 x i8]* @.str.1, i64 0, i64 0), i32 %47, i32 %48)
  %50 = load i32, i32* %9, align 4
  %51 = add nsw i32 %50, 1
  store i32 %51, i32* %9, align 4
  br label %52

52:                                               ; preds = %46, %38
  br label %53

53:                                               ; preds = %52, %35
  store i32 0, i32* %6, align 4
  br label %54

54:                                               ; preds = %53
  %55 = load i32, i32* %2, align 4
  %56 = add nsw i32 %55, 1
  store i32 %56, i32* %2, align 4
  br label %11

57:                                               ; preds = %11
  %58 = load i32, i32* %9, align 4
  %59 = icmp eq i32 %58, 0
  br i1 %59, label %60, label %62

60:                                               ; preds = %57
  %61 = call i32 (i8*, ...) @printf(i8* getelementptr inbounds ([7 x i8], [7 x i8]* @.str.2, i64 0, i64 0))
  br label %62

62:                                               ; preds = %60, %57
  %63 = load i32, i32* %1, align 4
  ret i32 %63
}

declare dso_local i32 @__isoc99_scanf(i8*, ...) #1

; Function Attrs: nounwind
declare dso_local double @sqrt(double) #2

declare dso_local i32 @printf(i8*, ...) #1


!llvm.module.flags = !{!0}
!llvm.ident = !{!1}

!0 = !{i32 1, !"wchar_size", i32 4}
!1 = !{!"clang version 10.0.0-4ubuntu1 "}
